; ModuleID = '58/1006.c'
source_filename = "58/1006.c"
target datalayout = "e-m:e-p270:32:32-p271:32:32-p272:64:64-i64:64-f80:128-n8:16:32:64-S128"
target triple = "x86_64-pc-linux-gnu"

@.str = private unnamed_addr constant [3 x i8] c"%d\00", align 1
@.str.1 = private unnamed_addr constant [4 x i8] c"%d\0A\00", align 1
@.str.2 = private unnamed_addr constant [3 x i8] c"0\0A\00", align 1
@.str.3 = private unnamed_addr constant [3 x i8] c"1\0A\00", align 1

; Function Attrs: noinline nounwind uwtable
define dso_local i32 @main() #0 {
  %1 = alloca i32, align 4
  %2 = alloca i32, align 4
  %3 = alloca i32, align 4
  %4 = alloca i32, align 4
  %5 = alloca i32, align 4
  %6 = alloca [81 x i8], align 16
  store i32 0, i32* %1, align 4
  %7 = call i32 (i8*, ...) @__isoc99_scanf(i8* getelementptr inbounds ([3 x i8], [3 x i8]* @.str, i64 0, i64 0), i32* %2)
  %8 = getelementptr inbounds [81 x i8], [81 x i8]* %6, i64 0, i64 0
  %9 = call i32 (i8*, ...) bitcast (i32 (...)* @gets to i32 (i8*, ...)*)(i8* %8)
  store i32 0, i32* %3, align 4
  br label %10

10:                                               ; preds = %104, %0
  %11 = load i32, i32* %3, align 4
  %12 = load i32, i32* %2, align 4
  %13 = icmp slt i32 %11, %12
  br i1 %13, label %14, label %107

14:                                               ; preds = %10
  %15 = getelementptr inbounds [81 x i8], [81 x i8]* %6, i64 0, i64 0
  call void @emp(i8* %15)
  %16 = getelementptr inbounds [81 x i8], [81 x i8]* %6, i64 0, i64 0
  %17 = call i32 (i8*, ...) bitcast (i32 (...)* @gets to i32 (i8*, ...)*)(i8* %16)
  %18 = getelementptr inbounds [81 x i8], [81 x i8]* %6, i64 0, i64 0
  %19 = call i64 @strlen(i8* %18) #3
  %20 = trunc i64 %19 to i32
  store i32 %20, i32* %5, align 4
  %21 = load i32, i32* %5, align 4
  %22 = icmp eq i32 %21, 1
  br i1 %22, label %23, label %37

23:                                               ; preds = %14
  %24 = getelementptr inbounds [81 x i8], [81 x i8]* %6, i64 0, i64 0
  %25 = load i8, i8* %24, align 16
  %26 = call i32 @judgeletter(i8 signext %25)
  %27 = icmp ne i32 %26, 0
  br i1 %27, label %33, label %28

28:                                               ; preds = %23
  %29 = getelementptr inbounds [81 x i8], [81 x i8]* %6, i64 0, i64 0
  %30 = load i8, i8* %29, align 16
  %31 = call i32 @judgeline(i8 signext %30)
  %32 = icmp ne i32 %31, 0
  br label %33

33:                                               ; preds = %28, %23
  %34 = phi i1 [ true, %23 ], [ %32, %28 ]
  %35 = zext i1 %34 to i32
  %36 = call i32 (i8*, ...) @printf(i8* getelementptr inbounds ([4 x i8], [4 x i8]* @.str.1, i64 0, i64 0), i32 %35)
  br label %104

37:                                               ; preds = %14
  %38 = getelementptr inbounds [81 x i8], [81 x i8]* %6, i64 0, i64 0
  %39 = load i8, i8* %38, align 16
  %40 = call i32 @judgeletter(i8 signext %39)
  %41 = icmp ne i32 %40, 0
  br i1 %41, label %47, label %42

42:                                               ; preds = %37
  %43 = getelementptr inbounds [81 x i8], [81 x i8]* %6, i64 0, i64 0
  %44 = load i8, i8* %43, align 16
  %45 = call i32 @judgeline(i8 signext %44)
  %46 = icmp ne i32 %45, 0
  br label %47

47:                                               ; preds = %42, %37
  %48 = phi i1 [ true, %37 ], [ %46, %42 ]
  %49 = zext i1 %48 to i32
  %50 = icmp eq i32 %49, 0
  br i1 %50, label %51, label %53

51:                                               ; preds = %47
  %52 = call i32 (i8*, ...) @printf(i8* getelementptr inbounds ([3 x i8], [3 x i8]* @.str.2, i64 0, i64 0))
  br label %104

53:                                               ; preds = %47
  store i32 1, i32* %4, align 4
  br label %54

54:                                               ; preds = %92, %53
  %55 = getelementptr inbounds [81 x i8], [81 x i8]* %6, i64 0, i64 0
  %56 = load i32, i32* %4, align 4
  %57 = sext i32 %56 to i64
  %58 = getelementptr inbounds i8, i8* %55, i64 %57
  %59 = load i8, i8* %58, align 1
  %60 = icmp ne i8 %59, 0
  br i1 %60, label %61, label %95

61:                                               ; preds = %54
  %62 = getelementptr inbounds [81 x i8], [81 x i8]* %6, i64 0, i64 0
  %63 = load i32, i32* %4, align 4
  %64 = sext i32 %63 to i64
  %65 = getelementptr inbounds i8, i8* %62, i64 %64
  %66 = load i8, i8* %65, align 1
  %67 = call i32 @judgeletter(i8 signext %66)
  %68 = icmp ne i32 %67, 0
  br i1 %68, label %85, label %69

69:                                               ; preds = %61
  %70 = getelementptr inbounds [81 x i8], [81 x i8]* %6, i64 0, i64 0
  %71 = load i32, i32* %4, align 4
  %72 = sext i32 %71 to i64
  %73 = getelementptr inbounds i8, i8* %70, i64 %72
  %74 = load i8, i8* %73, align 1
  %75 = call i32 @judgeline(i8 signext %74)
  %76 = icmp ne i32 %75, 0
  br i1 %76, label %85, label %77

77:                                               ; preds = %69
  %78 = getelementptr inbounds [81 x i8], [81 x i8]* %6, i64 0, i64 0
  %79 = load i32, i32* %4, align 4
  %80 = sext i32 %79 to i64
  %81 = getelementptr inbounds i8, i8* %78, i64 %80
  %82 = load i8, i8* %81, align 1
  %83 = call i32 @judgenum(i8 signext %82)
  %84 = icmp ne i32 %83, 0
  br label %85

85:                                               ; preds = %77, %69, %61
  %86 = phi i1 [ true, %69 ], [ true, %61 ], [ %84, %77 ]
  %87 = zext i1 %86 to i32
  %88 = icmp eq i32 %87, 0
  br i1 %88, label %89, label %91

89:                                               ; preds = %85
  %90 = call i32 (i8*, ...) @printf(i8* getelementptr inbounds ([3 x i8], [3 x i8]* @.str.2, i64 0, i64 0))
  br label %95

91:                                               ; preds = %85
  br label %92

92:                                               ; preds = %91
  %93 = load i32, i32* %4, align 4
  %94 = add nsw i32 %93, 1
  store i32 %94, i32* %4, align 4
  br label %54

95:                                               ; preds = %89, %54
  %96 = load i32, i32* %4, align 4
  %97 = load i32, i32* %5, align 4
  %98 = icmp eq i32 %96, %97
  br i1 %98, label %99, label %101

99:                                               ; preds = %95
  %100 = call i32 (i8*, ...) @printf(i8* getelementptr inbounds ([3 x i8], [3 x i8]* @.str.3, i64 0, i64 0))
  br label %101

101:                                              ; preds = %99, %95
  br label %102

102:                                              ; preds = %101
  br label %103

103:                                              ; preds = %102
  br label %104

104:                                              ; preds = %103, %51, %33
  %105 = load i32, i32* %3, align 4
  %106 = add nsw i32 %105, 1
  store i32 %106, i32* %3, align 4
  br label %10

107:                                              ; preds = %10
  ret i32 0
}

declare dso_local i32 @__isoc99_scanf(i8*, ...) #1

declare dso_local i32 @gets(...) #1

; Function Attrs: noinline nounwind uwtable
define dso_local void @emp(i8* %0) #0 {
  %2 = alloca i8*, align 8
  %3 = alloca i32, align 4
  store i8* %0, i8** %2, align 8
  store i32 0, i32* %3, align 4
  br label %4

4:                                                ; preds = %16, %1
  %5 = load i8*, i8** %2, align 8
  %6 = load i32, i32* %3, align 4
  %7 = sext i32 %6 to i64
  %8 = getelementptr inbounds i8, i8* %5, i64 %7
  %9 = load i8, i8* %8, align 1
  %10 = icmp ne i8 %9, 0
  br i1 %10, label %11, label %19

11:                                               ; preds = %4
  %12 = load i8*, i8** %2, align 8
  %13 = load i32, i32* %3, align 4
  %14 = sext i32 %13 to i64
  %15 = getelementptr inbounds i8, i8* %12, i64 %14
  store i8 0, i8* %15, align 1
  br label %16

16:                                               ; preds = %11
  %17 = load i32, i32* %3, align 4
  %18 = add nsw i32 %17, 1
  store i32 %18, i32* %3, align 4
  br label %4

19:                                               ; preds = %4
  ret void
}

; Function Attrs: nounwind readonly
declare dso_local i64 @strlen(i8*) #2

declare dso_local i32 @printf(i8*, ...) #1

; Function Attrs: noinline nounwind uwtable
define dso_local i32 @judgeletter(i8 signext %0) #0 {
  %2 = alloca i32, align 4
  %3 = alloca i8, align 1
  store i8 %0, i8* %3, align 1
  %4 = load i8, i8* %3, align 1
  %5 = sext i8 %4 to i32
  %6 = icmp sge i32 %5, 97
  br i1 %6, label %7, label %11

7:                                                ; preds = %1
  %8 = load i8, i8* %3, align 1
  %9 = sext i8 %8 to i32
  %10 = icmp sle i32 %9, 122
  br i1 %10, label %19, label %11

11:                                               ; preds = %7, %1
  %12 = load i8, i8* %3, align 1
  %13 = sext i8 %12 to i32
  %14 = icmp sge i32 %13, 65
  br i1 %14, label %15, label %20

15:                                               ; preds = %11
  %16 = load i8, i8* %3, align 1
  %17 = sext i8 %16 to i32
  %18 = icmp sle i32 %17, 90
  br i1 %18, label %19, label %20

19:                                               ; preds = %15, %7
  store i32 1, i32* %2, align 4
  br label %21

20:                                               ; preds = %15, %11
  store i32 0, i32* %2, align 4
  br label %21

21:                                               ; preds = %20, %19
  %22 = load i32, i32* %2, align 4
  ret i32 %22
}

; Function Attrs: noinline nounwind uwtable
define dso_local i32 @judgeline(i8 signext %0) #0 {
  %2 = alloca i32, align 4
  %3 = alloca i8, align 1
  store i8 %0, i8* %3, align 1
  %4 = load i8, i8* %3, align 1
  %5 = sext i8 %4 to i32
  %6 = icmp eq i32 %5, 95
  br i1 %6, label %7, label %8

7:                                                ; preds = %1
  store i32 1, i32* %2, align 4
  br label %9

8:                                                ; preds = %1
  store i32 0, i32* %2, align 4
  br label %9

9:                                                ; preds = %8, %7
  %10 = load i32, i32* %2, align 4
  ret i32 %10
}

; Function Attrs: noinline nounwind uwtable
define dso_local i32 @judgenum(i8 signext %0) #0 {
  %2 = alloca i32, align 4
  %3 = alloca i8, align 1
  store i8 %0, i8* %3, align 1
  %4 = load i8, i8* %3, align 1
  %5 = sext i8 %4 to i32
  %6 = icmp sge i32 %5, 48
  br i1 %6, label %7, label %12

7:                                                ; preds = %1
  %8 = load i8, i8* %3, align 1
  %9 = sext i8 %8 to i32
  %10 = icmp sle i32 %9, 57
  br i1 %10, label %11, label %12

11:                                               ; preds = %7
  store i32 1, i32* %2, align 4
  br label %13

12:                                               ; preds = %7, %1
  store i32 0, i32* %2, align 4
  br label %13

13:                                               ; preds = %12, %11
  %14 = load i32, i32* %2, align 4
  ret i32 %14
}


!llvm.module.flags = !{!0}
!llvm.ident = !{!1}

!0 = !{i32 1, !"wchar_size", i32 4}
!1 = !{!"clang version 10.0.0-4ubuntu1 "}
